target datalayout = "e-m:e-p270:32:32-p271:32:32-p272:64:64-i64:64-i128:128-f80:128-n8:16:32:64-S128"
target triple = "x86_64-pc-linux-gnu"

%struct.Curl_cftype = type { ptr, i32, i32, ptr, ptr, ptr, ptr, ptr, ptr, ptr, ptr, ptr, ptr, ptr, ptr, ptr }
%struct.Curl_sockaddr_ex = type { i32, i32, i32, i32, %union.anon }
%union.anon = type { %struct.Curl_sockaddr_storage }
%struct.Curl_sockaddr_storage = type { %union.anon.0 }
%union.anon.0 = type { %struct.sockaddr_storage }
%struct.sockaddr_storage = type { i16, [118 x i8], i64 }
%struct.Curl_easy = type { i32, i64, i64, ptr, %struct.Curl_llist_node, %struct.Curl_llist_node, i32, i32, %struct.Curl_message, %struct.easy_pollset, %struct.Names, ptr, ptr, ptr, ptr, %struct.SingleRequest, %struct.UserDefined, ptr, ptr, ptr, %struct.Progress, %struct.UrlState, ptr, %struct.PureInfo, %struct.curl_tlssessioninfo }
%struct.Curl_llist_node = type { ptr, ptr, ptr, ptr }
%struct.Curl_message = type { %struct.Curl_llist_node, %struct.CURLMsg }
%struct.CURLMsg = type { i32, ptr, %union.anon.3 }
%union.anon.3 = type { ptr }
%struct.easy_pollset = type { [5 x i32], i32, [5 x i8] }
%struct.Names = type { ptr, i32 }
%struct.SingleRequest = type <{ i64, i64, i64, i64, %struct.curltime, i32, i32, i32, i32, i64, i32, i32, i8, i8, [2 x i8], i32, ptr, ptr, %struct.bufq, i64, i64, ptr, ptr, %union.anon.4, ptr, i8, i32, [3 x i8] }>
%struct.curltime = type { i64, i32 }
%struct.bufq = type { ptr, ptr, ptr, ptr, i64, i64, i64, i32 }
%union.anon.4 = type { ptr }
%struct.UserDefined = type <{ ptr, ptr, ptr, ptr, ptr, ptr, i64, i64, i64, ptr, ptr, i64, ptr, ptr, ptr, ptr, ptr, ptr, ptr, ptr, ptr, ptr, ptr, ptr, ptr, ptr, ptr, ptr, ptr, ptr, ptr, ptr, ptr, ptr, ptr, i64, i64, i64, i64, i64, i64, i64, i64, i64, ptr, ptr, %struct.curl_mimepart, ptr, ptr, ptr, i64, %struct.ssl_config_data, %struct.ssl_config_data, ptr, i16, i8, i8, %struct.ssl_general_config, i32, i32, i32, [4 x i8], ptr, ptr, i64, i32, i8, i8, i8, i8, ptr, ptr, ptr, i32, [4 x i8], [74 x ptr], [8 x ptr], i32, i32, i32, [4 x i8], ptr, i32, [4 x i8], ptr, ptr, ptr, ptr, ptr, i32, i32, i32, i32, i32, i32, i32, i32, i64, ptr, ptr, i64, ptr, i64, ptr, ptr, ptr, ptr, i32, i16, i16, i16, i8, i8, i8, i8, i8, i8, i8, i8, i64, [6 x i8] }>
%struct.curl_mimepart = type { ptr, ptr, i32, i32, ptr, ptr, ptr, ptr, ptr, ptr, ptr, ptr, ptr, ptr, ptr, i64, %struct.mime_state, ptr, %struct.mime_encoder_state, i64 }
%struct.mime_state = type { i32, ptr, i64 }
%struct.mime_encoder_state = type { i64, i64, i64, [256 x i8] }
%struct.ssl_config_data = type { %struct.ssl_primary_config, i64, ptr, ptr, ptr, ptr, ptr, ptr, ptr, i16 }
%struct.ssl_primary_config = type { ptr, ptr, ptr, ptr, ptr, ptr, ptr, ptr, ptr, ptr, ptr, ptr, ptr, ptr, i8, i32, i8, i8 }
%struct.ssl_general_config = type { i32 }
%struct.Progress = type { i64, %struct.pgrs_dir, %struct.pgrs_dir, i64, i64, i32, i32, i64, i64, i64, i64, i64, i64, i64, i64, i64, %struct.curltime, %struct.curltime, %struct.curltime, %struct.curltime, %struct.curltime, [6 x i64], [6 x %struct.curltime], i32, i8 }
%struct.pgrs_dir = type { i64, i64, i64, %struct.pgrs_measure }
%struct.pgrs_measure = type { %struct.curltime, i64 }
%struct.UrlState = type { %struct.curltime, i64, i64, %struct.dynbuf, ptr, i64, ptr, i32, i32, i32, ptr, i32, i64, i32, ptr, %struct.digestdata, %struct.digestdata, %struct.auth, %struct.auth, %struct.Curl_async, ptr, i8, %struct.curltime, %struct.Curl_tree, %struct.Curl_llist, [15 x %struct.time_node], ptr, ptr, i64, i64, i64, i64, [32 x i8], i64, ptr, ptr, ptr, %struct.urlpieces, ptr, ptr, ptr, ptr, ptr, i64, %struct.dynbuf, %struct.Curl_llist, [2 x %struct.curl_header], ptr, i32, ptr, ptr, %struct.store_netrc, %struct.dynamically_allocated_data, i8, i8, i8, i8, i32 }
%struct.digestdata = type { ptr, ptr, ptr, ptr, ptr, ptr, i32, i8, i8 }
%struct.auth = type { i64, i64, i64, i8 }
%struct.Curl_async = type { ptr, ptr, ptr, ptr, i32, i32, i8 }
%struct.Curl_tree = type { ptr, ptr, ptr, ptr, %struct.curltime, ptr }
%struct.time_node = type { %struct.Curl_llist_node, %struct.curltime, i32 }
%struct.urlpieces = type { ptr, ptr, ptr, ptr, ptr, ptr, ptr, ptr }
%struct.dynbuf = type { ptr, i64, i64, i64 }
%struct.Curl_llist = type { ptr, ptr, ptr, i64 }
%struct.curl_header = type { ptr, ptr, i64, i64, i32, ptr }
%struct.store_netrc = type { %struct.dynbuf, ptr, i8 }
%struct.dynamically_allocated_data = type { ptr, ptr, ptr, ptr, ptr, ptr, ptr, ptr, ptr, ptr, ptr, ptr, ptr, ptr }
%struct.PureInfo = type { i32, i32, i32, i64, i64, i64, i64, i64, i64, i64, ptr, ptr, i64, i32, %struct.ip_quadruple, i32, ptr, i32, %struct.curl_certinfo, i32, i8 }
%struct.ip_quadruple = type { [46 x i8], [46 x i8], i32, i32 }
%struct.curl_certinfo = type { i32, ptr }
%struct.curl_tlssessioninfo = type { i32, ptr }
%struct.Curl_cfilter = type { ptr, ptr, ptr, ptr, i32, i8 }
%struct.curl_trc_feat = type { ptr, i32 }
%struct.cf_socket_ctx = type { i32, %struct.Curl_sockaddr_ex, i32, %struct.ip_quadruple, %struct.curltime, %struct.curltime, %struct.curltime, i32, i8 }

@.str.31 = private unnamed_addr constant [40 x i8] c"adjust_pollset, listening, POLLIN fd=%d\00", align 1
@.str.32 = private unnamed_addr constant [42 x i8] c"adjust_pollset, !connected, POLLOUT fd=%d\00", align 1
@.str.33 = private unnamed_addr constant [38 x i8] c"adjust_pollset, !active, POLLIN fd=%d\00", align 1

; Function Attrs: nounwind uwtable
define internal void @cf_socket_adjust_pollset(ptr noundef %0, ptr noundef %1, ptr noundef %2) #0 {
  %4 = alloca ptr, align 8
  %5 = alloca ptr, align 8
  %6 = alloca ptr, align 8
  %7 = alloca ptr, align 8
  store ptr %0, ptr %4, align 8, !tbaa !118
  store ptr %1, ptr %5, align 8, !tbaa !23
  store ptr %2, ptr %6, align 8, !tbaa !150
  call void @llvm.lifetime.start.p0(i64 8, ptr %7) #9
  %8 = load ptr, ptr %4, align 8, !tbaa !118
  %9 = getelementptr inbounds nuw %struct.Curl_cfilter, ptr %8, i32 0, i32 2
  %10 = load ptr, ptr %9, align 8, !tbaa !120
  store ptr %10, ptr %7, align 8, !tbaa !123
  %11 = load ptr, ptr %7, align 8, !tbaa !123
  %12 = getelementptr inbounds nuw %struct.cf_socket_ctx, ptr %11, i32 0, i32 2
  %13 = load i32, ptr %12, align 8, !tbaa !137
  %14 = icmp ne i32 %13, -1
  br i1 %14, label %15, label %194

15:                                               ; preds = %3
  %16 = load ptr, ptr %7, align 8, !tbaa !123
  %17 = getelementptr inbounds nuw %struct.cf_socket_ctx, ptr %16, i32 0, i32 8
  %18 = load i8, ptr %17, align 4
  %19 = lshr i8 %18, 1
  %20 = and i8 %19, 1
  %21 = zext i8 %20 to i32
  %22 = icmp ne i32 %21, 0
  br i1 %22, label %23, label %74

23:                                               ; preds = %15
  %24 = load ptr, ptr %5, align 8, !tbaa !23
  %25 = load ptr, ptr %6, align 8, !tbaa !150
  %26 = load ptr, ptr %7, align 8, !tbaa !123
  %27 = getelementptr inbounds nuw %struct.cf_socket_ctx, ptr %26, i32 0, i32 2
  %28 = load i32, ptr %27, align 8, !tbaa !137
  call void @Curl_pollset_change(ptr noundef %24, ptr noundef %25, i32 noundef %28, i32 noundef 1, i32 noundef 2)
  br label %29

29:                                               ; preds = %23
  %30 = load ptr, ptr %5, align 8, !tbaa !23
  %31 = icmp ne ptr %30, null
  br i1 %31, label %32, label %71

32:                                               ; preds = %29
  %33 = load ptr, ptr %5, align 8, !tbaa !23
  %34 = getelementptr inbounds nuw %struct.Curl_easy, ptr %33, i32 0, i32 16
  %35 = getelementptr inbounds nuw %struct.UserDefined, ptr %34, i32 0, i32 119
  %36 = load i64, ptr %35, align 2
  %37 = lshr i64 %36, 31
  %38 = and i64 %37, 1
  %39 = trunc i64 %38 to i32
  %40 = icmp ne i32 %39, 0
  br i1 %40, label %41, label %71

41:                                               ; preds = %32
  %42 = load ptr, ptr %5, align 8, !tbaa !23
  %43 = getelementptr inbounds nuw %struct.Curl_easy, ptr %42, i32 0, i32 21
  %44 = getelementptr inbounds nuw %struct.UrlState, ptr %43, i32 0, i32 50
  %45 = load ptr, ptr %44, align 8, !tbaa !125
  %46 = icmp ne ptr %45, null
  br i1 %46, label %47, label %55

47:                                               ; preds = %41
  %48 = load ptr, ptr %5, align 8, !tbaa !23
  %49 = getelementptr inbounds nuw %struct.Curl_easy, ptr %48, i32 0, i32 21
  %50 = getelementptr inbounds nuw %struct.UrlState, ptr %49, i32 0, i32 50
  %51 = load ptr, ptr %50, align 8, !tbaa !125
  %52 = getelementptr inbounds nuw %struct.curl_trc_feat, ptr %51, i32 0, i32 1
  %53 = load i32, ptr %52, align 8, !tbaa !126
  %54 = icmp sge i32 %53, 1
  br i1 %54, label %55, label %71

55:                                               ; preds = %47, %41
  %56 = load ptr, ptr %4, align 8, !tbaa !118
  %57 = icmp ne ptr %56, null
  br i1 %57, label %58, label %71

58:                                               ; preds = %55
  %59 = load ptr, ptr %4, align 8, !tbaa !118
  %60 = getelementptr inbounds nuw %struct.Curl_cfilter, ptr %59, i32 0, i32 0
  %61 = load ptr, ptr %60, align 8, !tbaa !128
  %62 = getelementptr inbounds nuw %struct.Curl_cftype, ptr %61, i32 0, i32 2
  %63 = load i32, ptr %62, align 4, !tbaa !129
  %64 = icmp sge i32 %63, 1
  br i1 %64, label %65, label %71

65:                                               ; preds = %58
  %66 = load ptr, ptr %5, align 8, !tbaa !23
  %67 = load ptr, ptr %4, align 8, !tbaa !118
  %68 = load ptr, ptr %7, align 8, !tbaa !123
  %69 = getelementptr inbounds nuw %struct.cf_socket_ctx, ptr %68, i32 0, i32 2
  %70 = load i32, ptr %69, align 8, !tbaa !137
  call void (ptr, ptr, ptr, ...) @Curl_trc_cf_infof(ptr noundef %66, ptr noundef %67, ptr noundef @.str.31, i32 noundef %70)
  br label %71

71:                                               ; preds = %65, %58, %55, %47, %32, %29
  br label %72

72:                                               ; preds = %71
  br label %73

73:                                               ; preds = %72
  br label %193

74:                                               ; preds = %15
  %75 = load ptr, ptr %4, align 8, !tbaa !118
  %76 = getelementptr inbounds nuw %struct.Curl_cfilter, ptr %75, i32 0, i32 5
  %77 = load i8, ptr %76, align 4
  %78 = and i8 %77, 1
  %79 = zext i8 %78 to i32
  %80 = icmp ne i32 %79, 0
  br i1 %80, label %132, label %81

81:                                               ; preds = %74
  %82 = load ptr, ptr %5, align 8, !tbaa !23
  %83 = load ptr, ptr %6, align 8, !tbaa !150
  %84 = load ptr, ptr %7, align 8, !tbaa !123
  %85 = getelementptr inbounds nuw %struct.cf_socket_ctx, ptr %84, i32 0, i32 2
  %86 = load i32, ptr %85, align 8, !tbaa !137
  call void @Curl_pollset_change(ptr noundef %82, ptr noundef %83, i32 noundef %86, i32 noundef 2, i32 noundef 1)
  br label %87

87:                                               ; preds = %81
  %88 = load ptr, ptr %5, align 8, !tbaa !23
  %89 = icmp ne ptr %88, null
  br i1 %89, label %90, label %129

90:                                               ; preds = %87
  %91 = load ptr, ptr %5, align 8, !tbaa !23
  %92 = getelementptr inbounds nuw %struct.Curl_easy, ptr %91, i32 0, i32 16
  %93 = getelementptr inbounds nuw %struct.UserDefined, ptr %92, i32 0, i32 119
  %94 = load i64, ptr %93, align 2
  %95 = lshr i64 %94, 31
  %96 = and i64 %95, 1
  %97 = trunc i64 %96 to i32
  %98 = icmp ne i32 %97, 0
  br i1 %98, label %99, label %129

99:                                               ; preds = %90
  %100 = load ptr, ptr %5, align 8, !tbaa !23
  %101 = getelementptr inbounds nuw %struct.Curl_easy, ptr %100, i32 0, i32 21
  %102 = getelementptr inbounds nuw %struct.UrlState, ptr %101, i32 0, i32 50
  %103 = load ptr, ptr %102, align 8, !tbaa !125
  %104 = icmp ne ptr %103, null
  br i1 %104, label %105, label %113

105:                                              ; preds = %99
  %106 = load ptr, ptr %5, align 8, !tbaa !23
  %107 = getelementptr inbounds nuw %struct.Curl_easy, ptr %106, i32 0, i32 21
  %108 = getelementptr inbounds nuw %struct.UrlState, ptr %107, i32 0, i32 50
  %109 = load ptr, ptr %108, align 8, !tbaa !125
  %110 = getelementptr inbounds nuw %struct.curl_trc_feat, ptr %109, i32 0, i32 1
  %111 = load i32, ptr %110, align 8, !tbaa !126
  %112 = icmp sge i32 %111, 1
  br i1 %112, label %113, label %129

113:                                              ; preds = %105, %99
  %114 = load ptr, ptr %4, align 8, !tbaa !118
  %115 = icmp ne ptr %114, null
  br i1 %115, label %116, label %129

116:                                              ; preds = %113
  %117 = load ptr, ptr %4, align 8, !tbaa !118
  %118 = getelementptr inbounds nuw %struct.Curl_cfilter, ptr %117, i32 0, i32 0
  %119 = load ptr, ptr %118, align 8, !tbaa !128
  %120 = getelementptr inbounds nuw %struct.Curl_cftype, ptr %119, i32 0, i32 2
  %121 = load i32, ptr %120, align 4, !tbaa !129
  %122 = icmp sge i32 %121, 1
  br i1 %122, label %123, label %129

123:                                              ; preds = %116
  %124 = load ptr, ptr %5, align 8, !tbaa !23
  %125 = load ptr, ptr %4, align 8, !tbaa !118
  %126 = load ptr, ptr %7, align 8, !tbaa !123
  %127 = getelementptr inbounds nuw %struct.cf_socket_ctx, ptr %126, i32 0, i32 2
  %128 = load i32, ptr %127, align 8, !tbaa !137
  call void (ptr, ptr, ptr, ...) @Curl_trc_cf_infof(ptr noundef %124, ptr noundef %125, ptr noundef @.str.32, i32 noundef %128)
  br label %129

129:                                              ; preds = %123, %116, %113, %105, %90, %87
  br label %130

130:                                              ; preds = %129
  br label %131

131:                                              ; preds = %130
  br label %192

132:                                              ; preds = %74
  %133 = load ptr, ptr %7, align 8, !tbaa !123
  %134 = getelementptr inbounds nuw %struct.cf_socket_ctx, ptr %133, i32 0, i32 8
  %135 = load i8, ptr %134, align 4
  %136 = lshr i8 %135, 4
  %137 = and i8 %136, 1
  %138 = zext i8 %137 to i32
  %139 = icmp ne i32 %138, 0
  br i1 %139, label %191, label %140

140:                                              ; preds = %132
  %141 = load ptr, ptr %5, align 8, !tbaa !23
  %142 = load ptr, ptr %6, align 8, !tbaa !150
  %143 = load ptr, ptr %7, align 8, !tbaa !123
  %144 = getelementptr inbounds nuw %struct.cf_socket_ctx, ptr %143, i32 0, i32 2
  %145 = load i32, ptr %144, align 8, !tbaa !137
  call void @Curl_pollset_change(ptr noundef %141, ptr noundef %142, i32 noundef %145, i32 noundef 1, i32 noundef 0)
  br label %146

146:                                              ; preds = %140
  %147 = load ptr, ptr %5, align 8, !tbaa !23
  %148 = icmp ne ptr %147, null
  br i1 %148, label %149, label %188

149:                                              ; preds = %146
  %150 = load ptr, ptr %5, align 8, !tbaa !23
  %151 = getelementptr inbounds nuw %struct.Curl_easy, ptr %150, i32 0, i32 16
  %152 = getelementptr inbounds nuw %struct.UserDefined, ptr %151, i32 0, i32 119
  %153 = load i64, ptr %152, align 2
  %154 = lshr i64 %153, 31
  %155 = and i64 %154, 1
  %156 = trunc i64 %155 to i32
  %157 = icmp ne i32 %156, 0
  br i1 %157, label %158, label %188

158:                                              ; preds = %149
  %159 = load ptr, ptr %5, align 8, !tbaa !23
  %160 = getelementptr inbounds nuw %struct.Curl_easy, ptr %159, i32 0, i32 21
  %161 = getelementptr inbounds nuw %struct.UrlState, ptr %160, i32 0, i32 50
  %162 = load ptr, ptr %161, align 8, !tbaa !125
  %163 = icmp ne ptr %162, null
  br i1 %163, label %164, label %172

164:                                              ; preds = %158
  %165 = load ptr, ptr %5, align 8, !tbaa !23
  %166 = getelementptr inbounds nuw %struct.Curl_easy, ptr %165, i32 0, i32 21
  %167 = getelementptr inbounds nuw %struct.UrlState, ptr %166, i32 0, i32 50
  %168 = load ptr, ptr %167, align 8, !tbaa !125
  %169 = getelementptr inbounds nuw %struct.curl_trc_feat, ptr %168, i32 0, i32 1
  %170 = load i32, ptr %169, align 8, !tbaa !126
  %171 = icmp sge i32 %170, 1
  br i1 %171, label %172, label %188

172:                                              ; preds = %164, %158
  %173 = load ptr, ptr %4, align 8, !tbaa !118
  %174 = icmp ne ptr %173, null
  br i1 %174, label %175, label %188

175:                                              ; preds = %172
  %176 = load ptr, ptr %4, align 8, !tbaa !118
  %177 = getelementptr inbounds nuw %struct.Curl_cfilter, ptr %176, i32 0, i32 0
  %178 = load ptr, ptr %177, align 8, !tbaa !128
  %179 = getelementptr inbounds nuw %struct.Curl_cftype, ptr %178, i32 0, i32 2
  %180 = load i32, ptr %179, align 4, !tbaa !129
  %181 = icmp sge i32 %180, 1
  br i1 %181, label %182, label %188

182:                                              ; preds = %175
  %183 = load ptr, ptr %5, align 8, !tbaa !23
  %184 = load ptr, ptr %4, align 8, !tbaa !118
  %185 = load ptr, ptr %7, align 8, !tbaa !123
  %186 = getelementptr inbounds nuw %struct.cf_socket_ctx, ptr %185, i32 0, i32 2
  %187 = load i32, ptr %186, align 8, !tbaa !137
  call void (ptr, ptr, ptr, ...) @Curl_trc_cf_infof(ptr noundef %183, ptr noundef %184, ptr noundef @.str.33, i32 noundef %187)
  br label %188

188:                                              ; preds = %182, %175, %172, %164, %149, %146
  br label %189

189:                                              ; preds = %188
  br label %190

190:                                              ; preds = %189
  br label %191

191:                                              ; preds = %190, %132
  br label %192

192:                                              ; preds = %191, %131
  br label %193

193:                                              ; preds = %192, %73
  br label %194

194:                                              ; preds = %193, %3
  call void @llvm.lifetime.end.p0(i64 8, ptr %7) #9
  ret void
}