; Function Attrs: nounwind uwtable
define internal void @cf_socket_adjust_pollset(ptr noundef %0, ptr noundef %1, ptr noundef %2) #2 {
  %4 = getelementptr inbounds nuw i8, ptr %0, i64 16
  %5 = load ptr, ptr %4, align 8, !tbaa !104
  %6 = getelementptr inbounds nuw i8, ptr %5, i64 152
  %7 = load i32, ptr %6, align 8, !tbaa !116
  %.not = icmp eq i32 %7, -1
  br i1 %.not, label %70, label %8

8:                                                ; preds = %3
  %9 = getelementptr inbounds nuw i8, ptr %5, i64 308
  %10 = load i8, ptr %9, align 4
  %11 = and i8 %10, 2
  %.not52 = icmp eq i8 %11, 0
  br i1 %.not52, label %29, label %12

12:                                               ; preds = %8
  tail call void @Curl_pollset_change(ptr noundef %1, ptr noundef %2, i32 noundef %7, i32 noundef 1, i32 noundef 2) #13
  %.not61 = icmp eq ptr %1, null
  br i1 %.not61, label %70, label %13

13:                                               ; preds = %12
  %14 = getelementptr inbounds nuw i8, ptr %1, i64 2658
  %15 = load i64, ptr %14, align 2
  %16 = and i64 %15, 2147483648
  %.not62 = icmp eq i64 %16, 0
  br i1 %.not62, label %70, label %17

17:                                               ; preds = %13
  %18 = getelementptr inbounds nuw i8, ptr %1, i64 4864
  %19 = load ptr, ptr %18, align 8, !tbaa !108
  %.not63 = icmp eq ptr %19, null
  br i1 %.not63, label %24, label %20

20:                                               ; preds = %17
  %21 = getelementptr inbounds nuw i8, ptr %19, i64 8
  %22 = load i32, ptr %21, align 8, !tbaa !109
  %23 = icmp sgt i32 %22, 0
  br i1 %23, label %24, label %70

24:                                               ; preds = %17, %20
  %25 = load ptr, ptr %0, align 8, !tbaa !111
  %26 = getelementptr inbounds nuw i8, ptr %25, i64 12
  %27 = load i32, ptr %26, align 4, !tbaa !112
  %28 = icmp sgt i32 %27, 0
  br i1 %28, label %.sink.split, label %70

29:                                               ; preds = %8
  %30 = getelementptr inbounds nuw i8, ptr %0, i64 36
  %31 = load i8, ptr %30, align 4
  %32 = and i8 %31, 1
  %.not53 = icmp eq i8 %32, 0
  br i1 %.not53, label %33, label %50

33:                                               ; preds = %29
  tail call void @Curl_pollset_change(ptr noundef %1, ptr noundef %2, i32 noundef %7, i32 noundef 2, i32 noundef 1) #13
  %.not54 = icmp eq ptr %1, null
  br i1 %.not54, label %70, label %34

34:                                               ; preds = %33
  %35 = getelementptr inbounds nuw i8, ptr %1, i64 2658
  %36 = load i64, ptr %35, align 2
  %37 = and i64 %36, 2147483648
  %.not55 = icmp eq i64 %37, 0
  br i1 %.not55, label %70, label %38

38:                                               ; preds = %34
  %39 = getelementptr inbounds nuw i8, ptr %1, i64 4864
  %40 = load ptr, ptr %39, align 8, !tbaa !108
  %.not56 = icmp eq ptr %40, null
  br i1 %.not56, label %45, label %41

41:                                               ; preds = %38
  %42 = getelementptr inbounds nuw i8, ptr %40, i64 8
  %43 = load i32, ptr %42, align 8, !tbaa !109
  %44 = icmp sgt i32 %43, 0
  br i1 %44, label %45, label %70

45:                                               ; preds = %38, %41
  %46 = load ptr, ptr %0, align 8, !tbaa !111
  %47 = getelementptr inbounds nuw i8, ptr %46, i64 12
  %48 = load i32, ptr %47, align 4, !tbaa !112
  %49 = icmp sgt i32 %48, 0
  br i1 %49, label %.sink.split, label %70

50:                                               ; preds = %29
  %51 = and i8 %10, 16
  %.not57 = icmp eq i8 %51, 0
  br i1 %.not57, label %52, label %70

52:                                               ; preds = %50
  tail call void @Curl_pollset_change(ptr noundef %1, ptr noundef %2, i32 noundef %7, i32 noundef 1, i32 noundef 0) #13
  %.not58 = icmp eq ptr %1, null
  br i1 %.not58, label %70, label %53

53:                                               ; preds = %52
  %54 = getelementptr inbounds nuw i8, ptr %1, i64 2658
  %55 = load i64, ptr %54, align 2
  %56 = and i64 %55, 2147483648
  %.not59 = icmp eq i64 %56, 0
  br i1 %.not59, label %70, label %57

57:                                               ; preds = %53
  %58 = getelementptr inbounds nuw i8, ptr %1, i64 4864
  %59 = load ptr, ptr %58, align 8, !tbaa !108
  %.not60 = icmp eq ptr %59, null
  br i1 %.not60, label %64, label %60

60:                                               ; preds = %57
  %61 = getelementptr inbounds nuw i8, ptr %59, i64 8
  %62 = load i32, ptr %61, align 8, !tbaa !109
  %63 = icmp sgt i32 %62, 0
  br i1 %63, label %64, label %70

64:                                               ; preds = %57, %60
  %65 = load ptr, ptr %0, align 8, !tbaa !111
  %66 = getelementptr inbounds nuw i8, ptr %65, i64 12
  %67 = load i32, ptr %66, align 4, !tbaa !112
  %68 = icmp sgt i32 %67, 0
  br i1 %68, label %.sink.split, label %70

.sink.split:                                      ; preds = %64, %45, %24
  %.str.31.sink = phi ptr [ @.str.31, %24 ], [ @.str.32, %45 ], [ @.str.33, %64 ]
  %69 = load i32, ptr %6, align 8, !tbaa !116
  tail call void (ptr, ptr, ptr, ...) @Curl_trc_cf_infof(ptr noundef nonnull %1, ptr noundef nonnull %0, ptr noundef nonnull %.str.31.sink, i32 noundef %69) #13
  br label %70

70:                                               ; preds = %.sink.split, %24, %20, %13, %12, %50, %64, %60, %53, %52, %33, %34, %41, %45, %3
  ret void
}